; Function Attrs: mustprogress uwtable
define hidden noundef nonnull align 8 dereferenceable(8) ptr @_ZN4cvc58internallsERSoRKNS0_16DTypeConstructorE(ptr noundef nonnull returned align 8 dereferenceable(8) %os, ptr noundef nonnull align 8 dereferenceable(264) %ctor) local_unnamed_addr #3 {
entry:
  %call2.i = tail call noundef nonnull align 8 dereferenceable(8) ptr @_ZStlsIcSt11char_traitsIcESaIcEERSt13basic_ostreamIT_T0_ES7_RKNSt7__cxx1112basic_stringIS4_S5_T1_EE(ptr noundef nonnull align 8 dereferenceable(8) %os, ptr noundef nonnull align 8 dereferenceable(32) %ctor)
  %d_args.i.i = getelementptr inbounds i8, ptr %ctor, i64 80
  %_M_finish.i.i.i = getelementptr inbounds i8, ptr %ctor, i64 88
  %0 = load ptr, ptr %_M_finish.i.i.i, align 8
  %1 = load ptr, ptr %d_args.i.i, align 8
  %sub.ptr.lhs.cast.i.i.i = ptrtoint ptr %0 to i64
  %sub.ptr.rhs.cast.i.i.i = ptrtoint ptr %1 to i64
  %sub.ptr.sub.i.i.i = sub i64 %sub.ptr.lhs.cast.i.i.i, %sub.ptr.rhs.cast.i.i.i
  %2 = and i64 %sub.ptr.sub.i.i.i, 68719476720
  %cmp.i = icmp eq i64 %2, 0
  br i1 %cmp.i, label %_ZNK4cvc58internal16DTypeConstructor8toStreamERSo.exit, label %if.end.i

if.end.i:                                         ; preds = %entry
  %sub.ptr.div.i.i.i = lshr exact i64 %sub.ptr.sub.i.i.i, 4
  %call4.i = tail call noundef nonnull align 8 dereferenceable(8) ptr @_ZStlsISt11char_traitsIcEERSt13basic_ostreamIcT_ES5_PKc(ptr noundef nonnull align 8 dereferenceable(8) %os, ptr noundef nonnull @.str.28)
  %3 = and i64 %sub.ptr.div.i.i.i, 4294967295
  br label %for.body.i

for.body.i:                                       ; preds = %for.inc.i, %if.end.i
  %indvars.iv.i = phi i64 [ 0, %if.end.i ], [ %indvars.iv.next.i, %for.inc.i ]
  %4 = load ptr, ptr %d_args.i.i, align 8
  %add.ptr.i.i = getelementptr inbounds %"class.std::shared_ptr", ptr %4, i64 %indvars.iv.i
  %5 = load ptr, ptr %add.ptr.i.i, align 8
  %call9.i = tail call noundef nonnull align 8 dereferenceable(8) ptr @_ZN4cvc58internallsERSoRKNS0_13DTypeSelectorE(ptr noundef nonnull align 8 dereferenceable(8) %os, ptr noundef nonnull align 8 dereferenceable(57) %5)
  %indvars.iv.next.i = add nuw nsw i64 %indvars.iv.i, 1
  %cmp10.i = icmp ult i64 %indvars.iv.next.i, %3
  br i1 %cmp10.i, label %if.then11.i, label %for.inc.i

if.then11.i:                                      ; preds = %for.body.i
  %call12.i = tail call noundef nonnull align 8 dereferenceable(8) ptr @_ZStlsISt11char_traitsIcEERSt13basic_ostreamIcT_ES5_PKc(ptr noundef nonnull align 8 dereferenceable(8) %os, ptr noundef nonnull @.str.29)
  br label %for.inc.i

for.inc.i:                                        ; preds = %if.then11.i, %for.body.i
  %exitcond.not.i = icmp eq i64 %indvars.iv.next.i, %3
  br i1 %exitcond.not.i, label %for.end.i, label %for.body.i, !llvm.loop !90

for.end.i:                                        ; preds = %for.inc.i
  %call14.i = tail call noundef nonnull align 8 dereferenceable(8) ptr @_ZStlsISt11char_traitsIcEERSt13basic_ostreamIcT_ES5_PKc(ptr noundef nonnull align 8 dereferenceable(8) %os, ptr noundef nonnull @.str.30)
  br label %_ZNK4cvc58internal16DTypeConstructor8toStreamERSo.exit

_ZNK4cvc58internal16DTypeConstructor8toStreamERSo.exit: ; preds = %entry, %for.end.i
  ret ptr %os
}